; ModuleID = '32/1461.c'
source_filename = "32/1461.c"
target datalayout = "e-m:e-p270:32:32-p271:32:32-p272:64:64-i64:64-f80:128-n8:16:32:64-S128"
target triple = "x86_64-pc-linux-gnu"

@.str = private unnamed_addr constant [4 x i8] c"%d\0A\00", align 1
@.str.1 = private unnamed_addr constant [2 x i8] c"\0A\00", align 1

; Function Attrs: noinline nounwind uwtable
define dso_local i32 @main(i32 %0, i8** %1) #0 {
  %3 = alloca i32, align 4
  %4 = alloca i32, align 4
  %5 = alloca i8**, align 8
  %6 = alloca [200 x i8], align 16
  %7 = alloca [200 x i8], align 16
  %8 = alloca [200 x i8], align 16
  %9 = alloca i32, align 4
  %10 = alloca i32, align 4
  %11 = alloca i32, align 4
  %12 = alloca i32, align 4
  %13 = alloca i32, align 4
  store i32 0, i32* %3, align 4
  store i32 %0, i32* %4, align 4
  store i8** %1, i8*** %5, align 8
  %14 = call i32 (i8*, ...) @__isoc99_scanf(i8* getelementptr inbounds ([4 x i8], [4 x i8]* @.str, i64 0, i64 0), i32* %9)
  store i32 0, i32* %10, align 4
  br label %15

15:                                               ; preds = %162, %2
  %16 = load i32, i32* %10, align 4
  %17 = load i32, i32* %9, align 4
  %18 = icmp slt i32 %16, %17
  br i1 %18, label %19, label %165

19:                                               ; preds = %15
  %20 = load i32, i32* %10, align 4
  %21 = icmp sgt i32 %20, 0
  br i1 %21, label %22, label %24

22:                                               ; preds = %19
  %23 = call i32 (i8*, ...) @__isoc99_scanf(i8* getelementptr inbounds ([2 x i8], [2 x i8]* @.str.1, i64 0, i64 0))
  br label %24

24:                                               ; preds = %22, %19
  %25 = getelementptr inbounds [200 x i8], [200 x i8]* %6, i64 0, i64 0
  %26 = call i32 (i8*, ...) bitcast (i32 (...)* @gets to i32 (i8*, ...)*)(i8* %25)
  %27 = getelementptr inbounds [200 x i8], [200 x i8]* %7, i64 0, i64 0
  %28 = call i32 (i8*, ...) bitcast (i32 (...)* @gets to i32 (i8*, ...)*)(i8* %27)
  %29 = getelementptr inbounds [200 x i8], [200 x i8]* %6, i64 0, i64 0
  %30 = call i64 @strlen(i8* %29) #3
  %31 = trunc i64 %30 to i32
  store i32 %31, i32* %12, align 4
  %32 = getelementptr inbounds [200 x i8], [200 x i8]* %7, i64 0, i64 0
  %33 = call i64 @strlen(i8* %32) #3
  %34 = trunc i64 %33 to i32
  store i32 %34, i32* %13, align 4
  store i32 0, i32* %11, align 4
  br label %35

35:                                               ; preds = %54, %24
  %36 = load i32, i32* %11, align 4
  %37 = load i32, i32* %13, align 4
  %38 = sub nsw i32 %37, 1
  %39 = icmp sle i32 %36, %38
  br i1 %39, label %40, label %57

40:                                               ; preds = %35
  %41 = load i32, i32* %13, align 4
  %42 = sub nsw i32 %41, 1
  %43 = load i32, i32* %11, align 4
  %44 = sub nsw i32 %42, %43
  %45 = sext i32 %44 to i64
  %46 = getelementptr inbounds [200 x i8], [200 x i8]* %7, i64 0, i64 %45
  %47 = load i8, i8* %46, align 1
  %48 = load i32, i32* %12, align 4
  %49 = sub nsw i32 %48, 1
  %50 = load i32, i32* %11, align 4
  %51 = sub nsw i32 %49, %50
  %52 = sext i32 %51 to i64
  %53 = getelementptr inbounds [200 x i8], [200 x i8]* %7, i64 0, i64 %52
  store i8 %47, i8* %53, align 1
  br label %54

54:                                               ; preds = %40
  %55 = load i32, i32* %11, align 4
  %56 = add nsw i32 %55, 1
  store i32 %56, i32* %11, align 4
  br label %35

57:                                               ; preds = %35
  store i32 0, i32* %11, align 4
  br label %58

58:                                               ; preds = %68, %57
  %59 = load i32, i32* %11, align 4
  %60 = load i32, i32* %12, align 4
  %61 = load i32, i32* %13, align 4
  %62 = sub nsw i32 %60, %61
  %63 = icmp slt i32 %59, %62
  br i1 %63, label %64, label %71

64:                                               ; preds = %58
  %65 = load i32, i32* %11, align 4
  %66 = sext i32 %65 to i64
  %67 = getelementptr inbounds [200 x i8], [200 x i8]* %7, i64 0, i64 %66
  store i8 48, i8* %67, align 1
  br label %68

68:                                               ; preds = %64
  %69 = load i32, i32* %11, align 4
  %70 = add nsw i32 %69, 1
  store i32 %70, i32* %11, align 4
  br label %58

71:                                               ; preds = %58
  %72 = load i32, i32* %12, align 4
  %73 = sext i32 %72 to i64
  %74 = getelementptr inbounds [200 x i8], [200 x i8]* %7, i64 0, i64 %73
  store i8 0, i8* %74, align 1
  %75 = load i32, i32* %12, align 4
  %76 = sub nsw i32 %75, 1
  store i32 %76, i32* %11, align 4
  br label %77

77:                                               ; preds = %153, %71
  %78 = load i32, i32* %11, align 4
  %79 = icmp sge i32 %78, 0
  br i1 %79, label %80, label %156

80:                                               ; preds = %77
  %81 = load i32, i32* %11, align 4
  %82 = sext i32 %81 to i64
  %83 = getelementptr inbounds [200 x i8], [200 x i8]* %6, i64 0, i64 %82
  %84 = load i8, i8* %83, align 1
  %85 = sext i8 %84 to i32
  %86 = load i32, i32* %11, align 4
  %87 = sext i32 %86 to i64
  %88 = getelementptr inbounds [200 x i8], [200 x i8]* %7, i64 0, i64 %87
  %89 = load i8, i8* %88, align 1
  %90 = sext i8 %89 to i32
  %91 = icmp sge i32 %85, %90
  br i1 %91, label %92, label %109

92:                                               ; preds = %80
  %93 = load i32, i32* %11, align 4
  %94 = sext i32 %93 to i64
  %95 = getelementptr inbounds [200 x i8], [200 x i8]* %6, i64 0, i64 %94
  %96 = load i8, i8* %95, align 1
  %97 = sext i8 %96 to i32
  %98 = load i32, i32* %11, align 4
  %99 = sext i32 %98 to i64
  %100 = getelementptr inbounds [200 x i8], [200 x i8]* %7, i64 0, i64 %99
  %101 = load i8, i8* %100, align 1
  %102 = sext i8 %101 to i32
  %103 = sub nsw i32 %97, %102
  %104 = add nsw i32 %103, 48
  %105 = trunc i32 %104 to i8
  %106 = load i32, i32* %11, align 4
  %107 = sext i32 %106 to i64
  %108 = getelementptr inbounds [200 x i8], [200 x i8]* %8, i64 0, i64 %107
  store i8 %105, i8* %108, align 1
  br label %152

109:                                              ; preds = %80
  %110 = load i32, i32* %11, align 4
  %111 = sext i32 %110 to i64
  %112 = getelementptr inbounds [200 x i8], [200 x i8]* %6, i64 0, i64 %111
  %113 = load i8, i8* %112, align 1
  %114 = sext i8 %113 to i32
  %115 = load i32, i32* %11, align 4
  %116 = sext i32 %115 to i64
  %117 = getelementptr inbounds [200 x i8], [200 x i8]* %7, i64 0, i64 %116
  %118 = load i8, i8* %117, align 1
  %119 = sext i8 %118 to i32
  %120 = sub nsw i32 %114, %119
  %121 = add nsw i32 %120, 58
  %122 = trunc i32 %121 to i8
  %123 = load i32, i32* %11, align 4
  %124 = sext i32 %123 to i64
  %125 = getelementptr inbounds [200 x i8], [200 x i8]* %8, i64 0, i64 %124
  store i8 %122, i8* %125, align 1
  %126 = load i32, i32* %11, align 4
  %127 = sub nsw i32 %126, 1
  %128 = sext i32 %127 to i64
  %129 = getelementptr inbounds [200 x i8], [200 x i8]* %6, i64 0, i64 %128
  %130 = load i8, i8* %129, align 1
  %131 = sext i8 %130 to i32
  %132 = icmp eq i32 %131, 0
  br i1 %132, label %133, label %138

133:                                              ; preds = %109
  %134 = load i32, i32* %11, align 4
  %135 = sub nsw i32 %134, 1
  %136 = sext i32 %135 to i64
  %137 = getelementptr inbounds [200 x i8], [200 x i8]* %6, i64 0, i64 %136
  store i8 57, i8* %137, align 1
  br label %151

138:                                              ; preds = %109
  %139 = load i32, i32* %11, align 4
  %140 = sub nsw i32 %139, 1
  %141 = sext i32 %140 to i64
  %142 = getelementptr inbounds [200 x i8], [200 x i8]* %6, i64 0, i64 %141
  %143 = load i8, i8* %142, align 1
  %144 = sext i8 %143 to i32
  %145 = sub nsw i32 %144, 1
  %146 = trunc i32 %145 to i8
  %147 = load i32, i32* %11, align 4
  %148 = sub nsw i32 %147, 1
  %149 = sext i32 %148 to i64
  %150 = getelementptr inbounds [200 x i8], [200 x i8]* %6, i64 0, i64 %149
  store i8 %146, i8* %150, align 1
  br label %151

151:                                              ; preds = %138, %133
  br label %152

152:                                              ; preds = %151, %92
  br label %153

153:                                              ; preds = %152
  %154 = load i32, i32* %11, align 4
  %155 = add nsw i32 %154, -1
  store i32 %155, i32* %11, align 4
  br label %77

156:                                              ; preds = %77
  %157 = load i32, i32* %12, align 4
  %158 = sext i32 %157 to i64
  %159 = getelementptr inbounds [200 x i8], [200 x i8]* %8, i64 0, i64 %158
  store i8 0, i8* %159, align 1
  %160 = getelementptr inbounds [200 x i8], [200 x i8]* %8, i64 0, i64 0
  %161 = call i32 @puts(i8* %160)
  br label %162

162:                                              ; preds = %156
  %163 = load i32, i32* %10, align 4
  %164 = add nsw i32 %163, 1
  store i32 %164, i32* %10, align 4
  br label %15

165:                                              ; preds = %15
  ret i32 0
}

declare dso_local i32 @__isoc99_scanf(i8*, ...) #1

declare dso_local i32 @gets(...) #1

; Function Attrs: nounwind readonly
declare dso_local i64 @strlen(i8*) #2

declare dso_local i32 @puts(i8*) #1


!llvm.module.flags = !{!0}
!llvm.ident = !{!1}

!0 = !{i32 1, !"wchar_size", i32 4}
!1 = !{!"clang version 10.0.0-4ubuntu1 "}
